target datalayout = "e-m:e-p270:32:32-p271:32:32-p272:64:64-i64:64-i128:128-f80:128-n8:16:32:64-S128"
target triple = "x86_64-pc-linux-gnu"

; Function Attrs: inlinehint mustprogress nounwind uwtable
define linkonce_odr void @_ZSt4swapImENSt9enable_ifIXsr6__and_ISt6__not_ISt15__is_tuple_likeIT_EESt21is_move_constructibleIS3_ESt18is_move_assignableIS3_EEE5valueEvE4typeERS3_SC_(ptr noundef nonnull align 8 dereferenceable(8) %0, ptr noundef nonnull align 8 dereferenceable(8) %1) #7 comdat {
  %3 = alloca ptr, align 8
  %4 = alloca ptr, align 8
  %5 = alloca i64, align 8
  store ptr %0, ptr %3, align 8, !tbaa !30
  store ptr %1, ptr %4, align 8, !tbaa !30
  call void @llvm.lifetime.start.p0(i64 8, ptr %5) #3
  %6 = load ptr, ptr %3, align 8, !tbaa !30
  %7 = load i64, ptr %6, align 8, !tbaa !26
  store i64 %7, ptr %5, align 8, !tbaa !26
  %8 = load ptr, ptr %4, align 8, !tbaa !30
  %9 = load i64, ptr %8, align 8, !tbaa !26
  %10 = load ptr, ptr %3, align 8, !tbaa !30
  store i64 %9, ptr %10, align 8, !tbaa !26
  %11 = load i64, ptr %5, align 8, !tbaa !26
  %12 = load ptr, ptr %4, align 8, !tbaa !30
  store i64 %11, ptr %12, align 8, !tbaa !26
  call void @llvm.lifetime.end.p0(i64 8, ptr %5) #3
  ret void
}

; Function Attrs: mustprogress uwtable
define hidden void @_ZN2cv3dnn13fastGemmPackBEbmmPKfmPfRKNS0_11FastGemmOptE(i1 noundef zeroext %0, i64 noundef %1, i64 noundef %2, ptr noundef %3, i64 noundef %4, ptr noundef %5, ptr noundef nonnull align 1 dereferenceable(5) %6) #6 {
  %8 = alloca i8, align 1
  %9 = alloca i64, align 8
  %10 = alloca i64, align 8
  %11 = alloca ptr, align 8
  %12 = alloca i64, align 8
  %13 = alloca ptr, align 8
  %14 = alloca ptr, align 8
  %15 = alloca i64, align 8
  %16 = alloca i64, align 8
  %17 = alloca ptr, align 8
  %18 = alloca ptr, align 8
  %19 = alloca ptr, align 8
  %20 = zext i1 %0 to i8
  store i8 %20, ptr %8, align 1, !tbaa !24
  store i64 %1, ptr %9, align 8, !tbaa !26
  store i64 %2, ptr %10, align 8, !tbaa !26
  store ptr %3, ptr %11, align 8, !tbaa !16
  store i64 %4, ptr %12, align 8, !tbaa !26
  store ptr %5, ptr %13, align 8, !tbaa !16
  store ptr %6, ptr %14, align 8, !tbaa !105
  call void @llvm.lifetime.start.p0(i64 8, ptr %15) #3
  %21 = load i64, ptr %12, align 8, !tbaa !26
  store i64 %21, ptr %15, align 8, !tbaa !26
  call void @llvm.lifetime.start.p0(i64 8, ptr %16) #3
  store i64 1, ptr %16, align 8, !tbaa !26
  %22 = load i8, ptr %8, align 1, !tbaa !24, !range !35, !noundef !36
  %23 = trunc i8 %22 to i1
  br i1 %23, label %24, label %25

24:                                               ; preds = %7
  call void @_ZSt4swapImENSt9enable_ifIXsr6__and_ISt6__not_ISt15__is_tuple_likeIT_EESt21is_move_constructibleIS3_ESt18is_move_assignableIS3_EEE5valueEvE4typeERS3_SC_(ptr noundef nonnull align 8 dereferenceable(8) %10, ptr noundef nonnull align 8 dereferenceable(8) %9) #3
  call void @_ZSt4swapImENSt9enable_ifIXsr6__and_ISt6__not_ISt15__is_tuple_likeIT_EESt21is_move_constructibleIS3_ESt18is_move_assignableIS3_EEE5valueEvE4typeERS3_SC_(ptr noundef nonnull align 8 dereferenceable(8) %15, ptr noundef nonnull align 8 dereferenceable(8) %16) #3
  br label %25

25:                                               ; preds = %24, %7
  call void @llvm.lifetime.start.p0(i64 8, ptr %17) #3
  call void @llvm.lifetime.start.p0(i64 8, ptr %18) #3
  %26 = load ptr, ptr %11, align 8, !tbaa !16
  store ptr %26, ptr %18, align 8, !tbaa !7
  store ptr %18, ptr %17, align 8, !tbaa !32
  call void @llvm.lifetime.start.p0(i64 8, ptr %19) #3
  %27 = load ptr, ptr %13, align 8, !tbaa !16
  store ptr %27, ptr %19, align 8, !tbaa !7
  %28 = load ptr, ptr %17, align 8, !tbaa !32
  %29 = load ptr, ptr %28, align 8, !tbaa !7
  %30 = load ptr, ptr %19, align 8, !tbaa !7
  %31 = load i64, ptr %9, align 8, !tbaa !26
  %32 = trunc i64 %31 to i32
  %33 = load i64, ptr %10, align 8, !tbaa !26
  %34 = trunc i64 %33 to i32
  %35 = load i64, ptr %15, align 8, !tbaa !26
  %36 = trunc i64 %35 to i32
  %37 = load i64, ptr %16, align 8, !tbaa !26
  %38 = trunc i64 %37 to i32
  call void @_ZN2cv3dnn12cpu_baseline19fastGemmPackBKernelEPKcPciiiii(ptr noundef %29, ptr noundef %30, i32 noundef %32, i32 noundef %34, i32 noundef %36, i32 noundef %38, i32 noundef 4)
  call void @llvm.lifetime.end.p0(i64 8, ptr %19) #3
  call void @llvm.lifetime.end.p0(i64 8, ptr %18) #3
  call void @llvm.lifetime.end.p0(i64 8, ptr %17) #3
  call void @llvm.lifetime.end.p0(i64 8, ptr %16) #3
  call void @llvm.lifetime.end.p0(i64 8, ptr %15) #3
  ret void
}