; Function Attrs: mustprogress nofree norecurse nosync nounwind memory(readwrite, inaccessiblemem: none) uwtable
define hidden void @_ZN2cv3dnn13fastGemmPackBEbmmPKfmPfRKNS0_11FastGemmOptE(i1 noundef zeroext %0, i64 noundef %1, i64 noundef %2, ptr noundef %3, i64 noundef %4, ptr noundef writeonly captures(none) %5, ptr noundef nonnull readnone align 1 captures(none) dereferenceable(5) %6) local_unnamed_addr #5 {
  br i1 %0, label %8, label %10

8:                                                ; preds = %7
  %9 = trunc i64 %4 to i32
  br label %10

10:                                               ; preds = %8, %7
  %.014 = phi i64 [ %2, %8 ], [ %1, %7 ]
  %.013 = phi i64 [ %1, %8 ], [ %2, %7 ]
  %.012 = phi i64 [ 1, %8 ], [ %4, %7 ]
  %.0 = phi i32 [ %9, %8 ], [ 1, %7 ]
  %11 = trunc i64 %.014 to i32
  %12 = trunc i64 %.013 to i32
  %13 = trunc i64 %.012 to i32
  tail call void @_ZN2cv3dnn12cpu_baseline19fastGemmPackBKernelEPKcPciiiii(ptr noundef %3, ptr noundef %5, i32 noundef %11, i32 noundef %12, i32 noundef %13, i32 noundef %.0, i32 noundef 4)
  ret void
}